(lp0
(I11056681
I9933195
F0.7611407669999152
tp1
a(I11056681
I11319037
F0.7457907428323842
tp2
a(I11056681
I11160899
F0.7435479043381947
tp3
a(I11056681
I11078532
F0.7420572300021507
tp4
a(I11056681
I10588708
F0.7413683435750303
tp5
a(I11056681
I10536011
F0.7411406890367194
tp6
a(I11056681
I10500110
F0.7383701209233793
tp7
a(I11056681
I8710865
F0.7347627187502882
tp8
a(I11056681
I9689049
F0.734421271457928
tp9
a(I11056681
I9600922
F0.7342246930274635
tp10
a(I11056681
I8643676
F0.7322734760096516
tp11
a(I11056681
I11226213
F0.7322243735181716
tp12
a(I11056681
I9539751
F0.7314897701880537
tp13
a(I11056681
I9665895
F0.7313992648552211
tp14
a(I11056681
I10393924
F0.7313801765256949
tp15
a(I11056681
I9122179
F0.7313676721903387
tp16
a(I11056681
I11248126
F0.7297341545562461
tp17
a(I11056681
I9600948
F0.7292842010214091
tp18
a(I11056681
I11438709
F0.7287899126490895
tp19
a(I11056681
I10753149
F0.7287540595573723
tp20
a.